; Function Attrs: mustprogress uwtable
define void @jsonnet_json_array_append(ptr nocapture noundef readnone %0, ptr noundef %1, ptr noundef %2) local_unnamed_addr #6 personality ptr @__gxx_personality_v0 {
  %4 = alloca ptr, align 8
  store ptr %2, ptr %4, align 8
  %5 = getelementptr inbounds i8, ptr %1, i64 56
  %6 = load ptr, ptr %5, align 8
  %7 = getelementptr inbounds i8, ptr %1, i64 64
  %8 = load ptr, ptr %7, align 8
  %.not.i = icmp eq ptr %6, %8
  br i1 %.not.i, label %12, label %9

9:                                                ; preds = %3
  store ptr %2, ptr %6, align 8
  %10 = load ptr, ptr %5, align 8
  %11 = getelementptr inbounds i8, ptr %10, i64 8
  store ptr %11, ptr %5, align 8
  br label %_ZNSt6vectorISt10unique_ptrI16JsonnetJsonValueSt14default_deleteIS1_EESaIS4_EE12emplace_backIJRPS1_EEERS4_DpOT_.exit

12:                                               ; preds = %3
  %13 = getelementptr inbounds i8, ptr %1, i64 48
  call void @_ZNSt6vectorISt10unique_ptrI16JsonnetJsonValueSt14default_deleteIS1_EESaIS4_EE17_M_realloc_insertIJRPS1_EEEvN9__gnu_cxx17__normal_iteratorIPS4_S6_EEDpOT_(ptr noundef nonnull align 8 dereferenceable(24) %13, ptr %6, ptr noundef nonnull align 8 dereferenceable(8) %4)
  br label %_ZNSt6vectorISt10unique_ptrI16JsonnetJsonValueSt14default_deleteIS1_EESaIS4_EE12emplace_backIJRPS1_EEERS4_DpOT_.exit

_ZNSt6vectorISt10unique_ptrI16JsonnetJsonValueSt14default_deleteIS1_EESaIS4_EE12emplace_backIJRPS1_EEERS4_DpOT_.exit: ; preds = %9, %12
  ret void
}